; ModuleID = '46/2088.c'
source_filename = "46/2088.c"
target datalayout = "e-m:e-p270:32:32-p271:32:32-p272:64:64-i64:64-f80:128-n8:16:32:64-S128"
target triple = "x86_64-pc-linux-gnu"

@.str = private unnamed_addr constant [5 x i8] c"%d%d\00", align 1
@.str.1 = private unnamed_addr constant [3 x i8] c"%d\00", align 1
@.str.2 = private unnamed_addr constant [4 x i8] c"%d\0A\00", align 1

; Function Attrs: noinline nounwind uwtable
define dso_local i32 @main() #0 {
  %1 = alloca i32, align 4
  %2 = alloca [100 x [100 x i32]], align 16
  %3 = alloca i32, align 4
  %4 = alloca i32, align 4
  %5 = alloca i32, align 4
  %6 = alloca i32, align 4
  %7 = alloca i32, align 4
  %8 = alloca i32, align 4
  store i32 0, i32* %1, align 4
  %9 = call i32 (i8*, ...) @__isoc99_scanf(i8* getelementptr inbounds ([5 x i8], [5 x i8]* @.str, i64 0, i64 0), i32* %7, i32* %8)
  store i32 0, i32* %3, align 4
  br label %10

10:                                               ; preds = %31, %0
  %11 = load i32, i32* %3, align 4
  %12 = load i32, i32* %7, align 4
  %13 = icmp slt i32 %11, %12
  br i1 %13, label %14, label %34

14:                                               ; preds = %10
  store i32 0, i32* %4, align 4
  br label %15

15:                                               ; preds = %27, %14
  %16 = load i32, i32* %4, align 4
  %17 = load i32, i32* %8, align 4
  %18 = icmp slt i32 %16, %17
  br i1 %18, label %19, label %30

19:                                               ; preds = %15
  %20 = load i32, i32* %3, align 4
  %21 = sext i32 %20 to i64
  %22 = getelementptr inbounds [100 x [100 x i32]], [100 x [100 x i32]]* %2, i64 0, i64 %21
  %23 = load i32, i32* %4, align 4
  %24 = sext i32 %23 to i64
  %25 = getelementptr inbounds [100 x i32], [100 x i32]* %22, i64 0, i64 %24
  %26 = call i32 (i8*, ...) @__isoc99_scanf(i8* getelementptr inbounds ([3 x i8], [3 x i8]* @.str.1, i64 0, i64 0), i32* %25)
  br label %27

27:                                               ; preds = %19
  %28 = load i32, i32* %4, align 4
  %29 = add nsw i32 %28, 1
  store i32 %29, i32* %4, align 4
  br label %15

30:                                               ; preds = %15
  br label %31

31:                                               ; preds = %30
  %32 = load i32, i32* %3, align 4
  %33 = add nsw i32 %32, 1
  store i32 %33, i32* %3, align 4
  br label %10

34:                                               ; preds = %10
  store i32 0, i32* %5, align 4
  store i32 0, i32* %6, align 4
  br label %35

35:                                               ; preds = %34, %134
  %36 = load i32, i32* %6, align 4
  store i32 %36, i32* %4, align 4
  br label %37

37:                                               ; preds = %50, %35
  %38 = load i32, i32* %4, align 4
  %39 = load i32, i32* %8, align 4
  %40 = icmp slt i32 %38, %39
  br i1 %40, label %41, label %53

41:                                               ; preds = %37
  %42 = load i32, i32* %5, align 4
  %43 = sext i32 %42 to i64
  %44 = getelementptr inbounds [100 x [100 x i32]], [100 x [100 x i32]]* %2, i64 0, i64 %43
  %45 = load i32, i32* %4, align 4
  %46 = sext i32 %45 to i64
  %47 = getelementptr inbounds [100 x i32], [100 x i32]* %44, i64 0, i64 %46
  %48 = load i32, i32* %47, align 4
  %49 = call i32 (i8*, ...) @printf(i8* getelementptr inbounds ([4 x i8], [4 x i8]* @.str.2, i64 0, i64 0), i32 %48)
  br label %50

50:                                               ; preds = %41
  %51 = load i32, i32* %4, align 4
  %52 = add nsw i32 %51, 1
  store i32 %52, i32* %4, align 4
  br label %37

53:                                               ; preds = %37
  %54 = load i32, i32* %5, align 4
  %55 = add nsw i32 %54, 1
  store i32 %55, i32* %5, align 4
  %56 = load i32, i32* %5, align 4
  %57 = load i32, i32* %7, align 4
  %58 = icmp eq i32 %56, %57
  br i1 %58, label %59, label %60

59:                                               ; preds = %53
  br label %135

60:                                               ; preds = %53
  %61 = load i32, i32* %5, align 4
  store i32 %61, i32* %3, align 4
  br label %62

62:                                               ; preds = %76, %60
  %63 = load i32, i32* %3, align 4
  %64 = load i32, i32* %7, align 4
  %65 = icmp slt i32 %63, %64
  br i1 %65, label %66, label %79

66:                                               ; preds = %62
  %67 = load i32, i32* %3, align 4
  %68 = sext i32 %67 to i64
  %69 = getelementptr inbounds [100 x [100 x i32]], [100 x [100 x i32]]* %2, i64 0, i64 %68
  %70 = load i32, i32* %8, align 4
  %71 = sub nsw i32 %70, 1
  %72 = sext i32 %71 to i64
  %73 = getelementptr inbounds [100 x i32], [100 x i32]* %69, i64 0, i64 %72
  %74 = load i32, i32* %73, align 4
  %75 = call i32 (i8*, ...) @printf(i8* getelementptr inbounds ([4 x i8], [4 x i8]* @.str.2, i64 0, i64 0), i32 %74)
  br label %76

76:                                               ; preds = %66
  %77 = load i32, i32* %3, align 4
  %78 = add nsw i32 %77, 1
  store i32 %78, i32* %3, align 4
  br label %62

79:                                               ; preds = %62
  %80 = load i32, i32* %8, align 4
  %81 = sub nsw i32 %80, 1
  store i32 %81, i32* %8, align 4
  %82 = load i32, i32* %6, align 4
  %83 = load i32, i32* %8, align 4
  %84 = icmp eq i32 %82, %83
  br i1 %84, label %85, label %86

85:                                               ; preds = %79
  br label %135

86:                                               ; preds = %79
  %87 = load i32, i32* %8, align 4
  %88 = sub nsw i32 %87, 1
  store i32 %88, i32* %4, align 4
  br label %89

89:                                               ; preds = %103, %86
  %90 = load i32, i32* %4, align 4
  %91 = load i32, i32* %6, align 4
  %92 = icmp sge i32 %90, %91
  br i1 %92, label %93, label %106

93:                                               ; preds = %89
  %94 = load i32, i32* %7, align 4
  %95 = sub nsw i32 %94, 1
  %96 = sext i32 %95 to i64
  %97 = getelementptr inbounds [100 x [100 x i32]], [100 x [100 x i32]]* %2, i64 0, i64 %96
  %98 = load i32, i32* %4, align 4
  %99 = sext i32 %98 to i64
  %100 = getelementptr inbounds [100 x i32], [100 x i32]* %97, i64 0, i64 %99
  %101 = load i32, i32* %100, align 4
  %102 = call i32 (i8*, ...) @printf(i8* getelementptr inbounds ([4 x i8], [4 x i8]* @.str.2, i64 0, i64 0), i32 %101)
  br label %103

103:                                              ; preds = %93
  %104 = load i32, i32* %4, align 4
  %105 = add nsw i32 %104, -1
  store i32 %105, i32* %4, align 4
  br label %89

106:                                              ; preds = %89
  %107 = load i32, i32* %7, align 4
  %108 = sub nsw i32 %107, 1
  store i32 %108, i32* %7, align 4
  %109 = load i32, i32* %7, align 4
  %110 = sub nsw i32 %109, 1
  store i32 %110, i32* %3, align 4
  br label %111

111:                                              ; preds = %124, %106
  %112 = load i32, i32* %3, align 4
  %113 = load i32, i32* %5, align 4
  %114 = icmp sge i32 %112, %113
  br i1 %114, label %115, label %127

115:                                              ; preds = %111
  %116 = load i32, i32* %3, align 4
  %117 = sext i32 %116 to i64
  %118 = getelementptr inbounds [100 x [100 x i32]], [100 x [100 x i32]]* %2, i64 0, i64 %117
  %119 = load i32, i32* %6, align 4
  %120 = sext i32 %119 to i64
  %121 = getelementptr inbounds [100 x i32], [100 x i32]* %118, i64 0, i64 %120
  %122 = load i32, i32* %121, align 4
  %123 = call i32 (i8*, ...) @printf(i8* getelementptr inbounds ([4 x i8], [4 x i8]* @.str.2, i64 0, i64 0), i32 %122)
  br label %124

124:                                              ; preds = %115
  %125 = load i32, i32* %3, align 4
  %126 = add nsw i32 %125, -1
  store i32 %126, i32* %3, align 4
  br label %111

127:                                              ; preds = %111
  %128 = load i32, i32* %6, align 4
  %129 = add nsw i32 %128, 1
  store i32 %129, i32* %6, align 4
  %130 = load i32, i32* %5, align 4
  %131 = load i32, i32* %7, align 4
  %132 = icmp eq i32 %130, %131
  br i1 %132, label %133, label %134

133:                                              ; preds = %127
  br label %135

134:                                              ; preds = %127
  br label %35

135:                                              ; preds = %133, %85, %59
  ret i32 0
}

declare dso_local i32 @__isoc99_scanf(i8*, ...) #1

declare dso_local i32 @printf(i8*, ...) #1


!llvm.module.flags = !{!0}
!llvm.ident = !{!1}

!0 = !{i32 1, !"wchar_size", i32 4}
!1 = !{!"clang version 10.0.0-4ubuntu1 "}
