; ModuleID = 'source-C-CXX/45/2088.c'
source_filename = "source-C-CXX/45/2088.c"
target datalayout = "e-m:e-p270:32:32-p271:32:32-p272:64:64-i64:64-f80:128-n8:16:32:64-S128"
target triple = "x86_64-pc-linux-gnu"

@.str = private unnamed_addr constant [5 x i8] c"%d%d\00", align 1
@.str.1 = private unnamed_addr constant [3 x i8] c"%d\00", align 1
@.str.2 = private unnamed_addr constant [4 x i8] c"%d\0A\00", align 1

; Function Attrs: nofree nounwind sspstrong uwtable
define dso_local i32 @main() local_unnamed_addr #0 {
  %1 = alloca [100 x [100 x i32]], align 16
  %2 = alloca i32, align 4
  %3 = alloca i32, align 4
  %4 = bitcast [100 x [100 x i32]]* %1 to i8*
  call void @llvm.lifetime.start.p0i8(i64 40000, i8* nonnull %4) #3
  %5 = bitcast i32* %2 to i8*
  call void @llvm.lifetime.start.p0i8(i64 4, i8* nonnull %5) #3
  %6 = bitcast i32* %3 to i8*
  call void @llvm.lifetime.start.p0i8(i64 4, i8* nonnull %6) #3
  %7 = call i32 (i8*, ...) @__isoc99_scanf(i8* getelementptr inbounds ([5 x i8], [5 x i8]* @.str, i64 0, i64 0), i32* nonnull %2, i32* nonnull %3)
  %8 = load i32, i32* %2, align 4, !tbaa !5
  %9 = icmp sgt i32 %8, 0
  %10 = load i32, i32* %3, align 4
  %11 = icmp sgt i32 %10, 0
  %12 = select i1 %9, i1 %11, i1 false
  br i1 %12, label %13, label %34

13:                                               ; preds = %0, %28
  %14 = phi i32 [ %29, %28 ], [ %8, %0 ]
  %15 = phi i32 [ %30, %28 ], [ %10, %0 ]
  %16 = phi i64 [ %31, %28 ], [ 0, %0 ]
  %17 = icmp sgt i32 %15, 0
  br i1 %17, label %18, label %28

18:                                               ; preds = %13, %18
  %19 = phi i64 [ %22, %18 ], [ 0, %13 ]
  %20 = getelementptr inbounds [100 x [100 x i32]], [100 x [100 x i32]]* %1, i64 0, i64 %16, i64 %19
  %21 = call i32 (i8*, ...) @__isoc99_scanf(i8* getelementptr inbounds ([3 x i8], [3 x i8]* @.str.1, i64 0, i64 0), i32* nonnull %20)
  %22 = add nuw nsw i64 %19, 1
  %23 = load i32, i32* %3, align 4, !tbaa !5
  %24 = sext i32 %23 to i64
  %25 = icmp slt i64 %22, %24
  br i1 %25, label %18, label %26, !llvm.loop !9

26:                                               ; preds = %18
  %27 = load i32, i32* %2, align 4, !tbaa !5
  br label %28

28:                                               ; preds = %26, %13
  %29 = phi i32 [ %27, %26 ], [ %14, %13 ]
  %30 = phi i32 [ %23, %26 ], [ %15, %13 ]
  %31 = add nuw nsw i64 %16, 1
  %32 = sext i32 %29 to i64
  %33 = icmp slt i64 %31, %32
  br i1 %33, label %13, label %34, !llvm.loop !11

34:                                               ; preds = %28, %0
  %35 = phi i32 [ %8, %0 ], [ %29, %28 ]
  br label %36

36:                                               ; preds = %34, %132
  %37 = phi i32 [ %133, %132 ], [ %35, %34 ]
  %38 = phi i64 [ %136, %132 ], [ 1, %34 ]
  %39 = phi i64 [ %57, %132 ], [ 0, %34 ]
  %40 = load i32, i32* %3, align 4, !tbaa !5
  %41 = sext i32 %40 to i64
  %42 = icmp slt i64 %39, %41
  br i1 %42, label %43, label %54

43:                                               ; preds = %36, %43
  %44 = phi i64 [ %48, %43 ], [ %39, %36 ]
  %45 = getelementptr inbounds [100 x [100 x i32]], [100 x [100 x i32]]* %1, i64 0, i64 %39, i64 %44
  %46 = load i32, i32* %45, align 4, !tbaa !5
  %47 = call i32 (i8*, ...) @printf(i8* nonnull dereferenceable(1) getelementptr inbounds ([4 x i8], [4 x i8]* @.str.2, i64 0, i64 0), i32 %46)
  %48 = add nuw i64 %44, 1
  %49 = load i32, i32* %3, align 4, !tbaa !5
  %50 = trunc i64 %48 to i32
  %51 = icmp sgt i32 %49, %50
  br i1 %51, label %43, label %52, !llvm.loop !13

52:                                               ; preds = %43
  %53 = load i32, i32* %2, align 4, !tbaa !5
  br label %54

54:                                               ; preds = %52, %36
  %55 = phi i32 [ %49, %52 ], [ %40, %36 ]
  %56 = phi i32 [ %53, %52 ], [ %37, %36 ]
  %57 = add nuw i64 %39, 1
  %58 = zext i32 %56 to i64
  %59 = icmp eq i64 %57, %58
  br i1 %59, label %137, label %60

60:                                               ; preds = %54
  %61 = trunc i64 %57 to i32
  %62 = icmp sgt i32 %56, %61
  br i1 %62, label %63, label %88

63:                                               ; preds = %60
  %64 = add nsw i32 %55, -1
  %65 = sext i32 %64 to i64
  %66 = getelementptr inbounds [100 x [100 x i32]], [100 x [100 x i32]]* %1, i64 0, i64 %38, i64 %65
  %67 = load i32, i32* %66, align 4, !tbaa !5
  %68 = call i32 (i8*, ...) @printf(i8* nonnull dereferenceable(1) getelementptr inbounds ([4 x i8], [4 x i8]* @.str.2, i64 0, i64 0), i32 %67)
  %69 = add i64 %38, 1
  %70 = load i32, i32* %2, align 4, !tbaa !5
  %71 = trunc i64 %69 to i32
  %72 = icmp sgt i32 %70, %71
  br i1 %72, label %73, label %85, !llvm.loop !14

73:                                               ; preds = %63, %73
  %74 = phi i64 [ %81, %73 ], [ %69, %63 ]
  %75 = load i32, i32* %3, align 4, !tbaa !5
  %76 = add nsw i32 %75, -1
  %77 = sext i32 %76 to i64
  %78 = getelementptr inbounds [100 x [100 x i32]], [100 x [100 x i32]]* %1, i64 0, i64 %74, i64 %77
  %79 = load i32, i32* %78, align 4, !tbaa !5
  %80 = call i32 (i8*, ...) @printf(i8* nonnull dereferenceable(1) getelementptr inbounds ([4 x i8], [4 x i8]* @.str.2, i64 0, i64 0), i32 %79)
  %81 = add i64 %74, 1
  %82 = load i32, i32* %2, align 4, !tbaa !5
  %83 = trunc i64 %81 to i32
  %84 = icmp sgt i32 %82, %83
  br i1 %84, label %73, label %85, !llvm.loop !14

85:                                               ; preds = %73, %63
  %86 = phi i32 [ %70, %63 ], [ %82, %73 ]
  %87 = load i32, i32* %3, align 4, !tbaa !5
  br label %88

88:                                               ; preds = %85, %60
  %89 = phi i32 [ %86, %85 ], [ %56, %60 ]
  %90 = phi i32 [ %87, %85 ], [ %55, %60 ]
  %91 = add nsw i32 %90, -1
  store i32 %91, i32* %3, align 4, !tbaa !5
  %92 = zext i32 %91 to i64
  %93 = icmp eq i64 %39, %92
  br i1 %93, label %137, label %94

94:                                               ; preds = %88
  %95 = add i32 %90, -2
  %96 = sext i32 %95 to i64
  %97 = icmp sgt i64 %39, %96
  br i1 %97, label %117, label %98

98:                                               ; preds = %94
  %99 = add nsw i32 %89, -1
  %100 = sext i32 %99 to i64
  %101 = getelementptr inbounds [100 x [100 x i32]], [100 x [100 x i32]]* %1, i64 0, i64 %100, i64 %96
  %102 = load i32, i32* %101, align 4, !tbaa !5
  %103 = call i32 (i8*, ...) @printf(i8* nonnull dereferenceable(1) getelementptr inbounds ([4 x i8], [4 x i8]* @.str.2, i64 0, i64 0), i32 %102)
  %104 = icmp slt i64 %39, %96
  br i1 %104, label %105, label %115, !llvm.loop !15

105:                                              ; preds = %98, %105
  %106 = phi i64 [ %107, %105 ], [ %96, %98 ]
  %107 = add nsw i64 %106, -1
  %108 = load i32, i32* %2, align 4, !tbaa !5
  %109 = add nsw i32 %108, -1
  %110 = sext i32 %109 to i64
  %111 = getelementptr inbounds [100 x [100 x i32]], [100 x [100 x i32]]* %1, i64 0, i64 %110, i64 %107
  %112 = load i32, i32* %111, align 4, !tbaa !5
  %113 = call i32 (i8*, ...) @printf(i8* nonnull dereferenceable(1) getelementptr inbounds ([4 x i8], [4 x i8]* @.str.2, i64 0, i64 0), i32 %112)
  %114 = icmp sgt i64 %107, %39
  br i1 %114, label %105, label %115, !llvm.loop !15

115:                                              ; preds = %105, %98
  %116 = load i32, i32* %2, align 4, !tbaa !5
  br label %117

117:                                              ; preds = %115, %94
  %118 = phi i32 [ %116, %115 ], [ %89, %94 ]
  %119 = add nsw i32 %118, -1
  store i32 %119, i32* %2, align 4, !tbaa !5
  %120 = add i32 %118, -2
  %121 = sext i32 %120 to i64
  %122 = icmp slt i64 %39, %121
  br i1 %122, label %123, label %132

123:                                              ; preds = %117, %123
  %124 = phi i64 [ %128, %123 ], [ %121, %117 ]
  %125 = getelementptr inbounds [100 x [100 x i32]], [100 x [100 x i32]]* %1, i64 0, i64 %124, i64 %39
  %126 = load i32, i32* %125, align 4, !tbaa !5
  %127 = call i32 (i8*, ...) @printf(i8* nonnull dereferenceable(1) getelementptr inbounds ([4 x i8], [4 x i8]* @.str.2, i64 0, i64 0), i32 %126)
  %128 = add nsw i64 %124, -1
  %129 = icmp sgt i64 %128, %39
  br i1 %129, label %123, label %130, !llvm.loop !16

130:                                              ; preds = %123
  %131 = load i32, i32* %2, align 4, !tbaa !5
  br label %132

132:                                              ; preds = %130, %117
  %133 = phi i32 [ %131, %130 ], [ %119, %117 ]
  %134 = zext i32 %133 to i64
  %135 = icmp eq i64 %57, %134
  %136 = add nuw i64 %38, 1
  br i1 %135, label %137, label %36

137:                                              ; preds = %132, %88, %54
  call void @llvm.lifetime.end.p0i8(i64 4, i8* nonnull %6) #3
  call void @llvm.lifetime.end.p0i8(i64 4, i8* nonnull %5) #3
  call void @llvm.lifetime.end.p0i8(i64 40000, i8* nonnull %4) #3
  ret i32 0
}

; Function Attrs: argmemonly mustprogress nofree nosync nounwind willreturn
declare void @llvm.lifetime.start.p0i8(i64 immarg, i8* nocapture) #1

; Function Attrs: nofree nounwind
declare noundef i32 @__isoc99_scanf(i8* nocapture noundef readonly, ...) local_unnamed_addr #2

; Function Attrs: nofree nounwind
declare noundef i32 @printf(i8* nocapture noundef readonly, ...) local_unnamed_addr #2

; Function Attrs: argmemonly mustprogress nofree nosync nounwind willreturn
declare void @llvm.lifetime.end.p0i8(i64 immarg, i8* nocapture) #1


!llvm.module.flags = !{!0, !1, !2, !3}
!llvm.ident = !{!4}

!0 = !{i32 1, !"wchar_size", i32 4}
!1 = !{i32 7, !"PIC Level", i32 2}
!2 = !{i32 7, !"PIE Level", i32 2}
!3 = !{i32 7, !"uwtable", i32 1}
!4 = !{!"clang version 13.0.0"}
!5 = !{!6, !6, i64 0}
!6 = !{!"int", !7, i64 0}
!7 = !{!"omnipotent char", !8, i64 0}
!8 = !{!"Simple C/C++ TBAA"}
!9 = distinct !{!9, !10}
!10 = !{!"llvm.loop.mustprogress"}
!11 = distinct !{!11, !10, !12}
!12 = !{!"llvm.loop.unswitch.partial.disable"}
!13 = distinct !{!13, !10}
!14 = distinct !{!14, !10}
!15 = distinct !{!15, !10}
!16 = distinct !{!16, !10}
